; Function Attrs: mustprogress uwtable
define hidden noundef nonnull align 8 dereferenceable(8) ptr @_ZN4perf8TestBase14_declareHelper3outERKN2cv17_InputOutputArrayES5_S5_S5_NS0_10WarmUpTypeE(ptr noundef nonnull readonly returned align 8 dereferenceable(8) %0, ptr noundef nonnull align 8 dereferenceable(24) %1, ptr noundef nonnull align 8 dereferenceable(24) %2, ptr noundef nonnull align 8 dereferenceable(24) %3, ptr noundef nonnull align 8 dereferenceable(24) %4, i32 noundef %5) local_unnamed_addr #5 align 2 {
  %7 = load ptr, ptr %0, align 8, !tbaa !289
  %8 = getelementptr inbounds nuw i8, ptr %7, i64 72
  %9 = load ptr, ptr %8, align 8, !tbaa !344
  %10 = getelementptr inbounds nuw i8, ptr %7, i64 80
  %11 = load ptr, ptr %10, align 8, !tbaa !344
  %12 = icmp eq ptr %9, %11
  br i1 %12, label %13, label %21

13:                                               ; preds = %6
  %14 = getelementptr inbounds nuw i8, ptr %7, i64 40
  tail call void @_ZN4perf8TestBase12declareArrayERSt6vectorISt4pairIiN2cv5Size_IiEEESaIS6_EERKNS3_17_InputOutputArrayENS0_10WarmUpTypeE(ptr noundef nonnull align 8 dereferenceable(24) %14, ptr noundef nonnull align 8 dereferenceable(24) %1, i32 noundef %5)
  %15 = load ptr, ptr %0, align 8, !tbaa !289
  %16 = getelementptr inbounds nuw i8, ptr %15, i64 40
  tail call void @_ZN4perf8TestBase12declareArrayERSt6vectorISt4pairIiN2cv5Size_IiEEESaIS6_EERKNS3_17_InputOutputArrayENS0_10WarmUpTypeE(ptr noundef nonnull align 8 dereferenceable(24) %16, ptr noundef nonnull align 8 dereferenceable(24) %2, i32 noundef %5)
  %17 = load ptr, ptr %0, align 8, !tbaa !289
  %18 = getelementptr inbounds nuw i8, ptr %17, i64 40
  tail call void @_ZN4perf8TestBase12declareArrayERSt6vectorISt4pairIiN2cv5Size_IiEEESaIS6_EERKNS3_17_InputOutputArrayENS0_10WarmUpTypeE(ptr noundef nonnull align 8 dereferenceable(24) %18, ptr noundef nonnull align 8 dereferenceable(24) %3, i32 noundef %5)
  %19 = load ptr, ptr %0, align 8, !tbaa !289
  %20 = getelementptr inbounds nuw i8, ptr %19, i64 40
  tail call void @_ZN4perf8TestBase12declareArrayERSt6vectorISt4pairIiN2cv5Size_IiEEESaIS6_EERKNS3_17_InputOutputArrayENS0_10WarmUpTypeE(ptr noundef nonnull align 8 dereferenceable(24) %20, ptr noundef nonnull align 8 dereferenceable(24) %4, i32 noundef %5)
  br label %21

21:                                               ; preds = %6, %13
  ret ptr %0
}